; Function Attrs: nounwind uwtable
define void @ff_opus_rc_enc_cdf(ptr noundef captures(none) %0, i32 noundef %1, ptr noundef readonly captures(none) %2) local_unnamed_addr #1 {
  %.not = icmp eq i32 %1, 0
  %4 = sext i32 %1 to i64
  %5 = getelementptr inbounds i16, ptr %2, i64 %4
  %6 = load i16, ptr %5, align 2, !tbaa !4
  %7 = zext i16 %6 to i32
  %8 = select i1 %.not, i32 0, i32 %7
  %9 = getelementptr i8, ptr %5, i64 2
  %10 = load i16, ptr %9, align 2, !tbaa !4
  %11 = zext i16 %10 to i32
  %12 = load i16, ptr %2, align 2, !tbaa !4
  %13 = zext i16 %12 to i32
  %14 = getelementptr inbounds nuw i8, ptr %0, i64 56
  %15 = load i32, ptr %14, align 8, !tbaa !8
  %.not11.i = icmp ult i16 %12, 256
  %16 = lshr i32 %13, 8
  %.110.i = select i1 %.not11.i, i32 %13, i32 %16
  %.1.i = select i1 %.not11.i, i32 0, i32 8
  %17 = zext nneg i32 %.110.i to i64
  %18 = getelementptr inbounds nuw [256 x i8], ptr @ff_log2_tab, i64 0, i64 %17
  %19 = load i8, ptr %18, align 1, !tbaa !22
  %20 = zext i8 %19 to i32
  %21 = add nuw nsw i32 %.1.i, %20
  %22 = lshr i32 %15, %21
  %.not25.i = icmp eq i32 %8, 0
  %.neg.i = sub nsw i32 %8, %13
  %.neg22.i = mul i32 %22, %.neg.i
  %23 = add i32 %.neg22.i, %15
  %24 = select i1 %.not25.i, i32 0, i32 %23
  %25 = getelementptr inbounds nuw i8, ptr %0, i64 60
  %26 = load i32, ptr %25, align 4, !tbaa !15
  %27 = add i32 %24, %26
  store i32 %27, ptr %25, align 4, !tbaa !15
  %.neg23.i = sub nsw i32 %11, %13
  %.neg24.i = mul i32 %22, %.neg23.i
  %28 = add i32 %.neg24.i, %15
  %29 = select i1 %.not25.i, i32 %28, i32 0
  %30 = select i1 %.not25.i, i32 0, i32 %22
  %31 = sub nsw i32 %11, %8
  %32 = mul i32 %30, %31
  %33 = add i32 %29, %32
  store i32 %33, ptr %14, align 8, !tbaa !8
  %34 = icmp ult i32 %33, 8388609
  br i1 %34, label %.lr.ph7, label %opus_rc_enc_normalize.exit

.lr.ph7:                                          ; preds = %3
  %35 = getelementptr inbounds nuw i8, ptr %0, i64 1372
  %36 = getelementptr inbounds nuw i8, ptr %0, i64 1360
  %37 = getelementptr inbounds nuw i8, ptr %0, i64 1368
  %38 = getelementptr inbounds nuw i8, ptr %0, i64 32
  %39 = getelementptr inbounds nuw i8, ptr %0, i64 64
  br label %40

40:                                               ; preds = %.lr.ph7, %opus_rc_enc_carryout.exit.i
  %41 = phi i32 [ %33, %.lr.ph7 ], [ %79, %opus_rc_enc_carryout.exit.i ]
  %42 = phi i32 [ %27, %.lr.ph7 ], [ %78, %opus_rc_enc_carryout.exit.i ]
  %43 = lshr i32 %42, 23
  %44 = lshr i32 %42, 31
  %45 = icmp eq i32 %43, 255
  br i1 %45, label %46, label %49

46:                                               ; preds = %40
  %47 = load i32, ptr %37, align 8, !tbaa !24
  %48 = add nsw i32 %47, 1
  store i32 %48, ptr %37, align 8, !tbaa !24
  br label %opus_rc_enc_carryout.exit.i

49:                                               ; preds = %40
  %50 = load i32, ptr %35, align 4, !tbaa !25
  %51 = add nsw i32 %50, %44
  %52 = trunc i32 %51 to i8
  %53 = load ptr, ptr %36, align 8, !tbaa !26
  store i8 %52, ptr %53, align 1, !tbaa !22
  %54 = load i32, ptr %35, align 4, !tbaa !25
  %55 = icmp sgt i32 %54, -1
  %56 = load ptr, ptr %36, align 8, !tbaa !26
  %57 = zext i1 %55 to i64
  %58 = getelementptr inbounds nuw i8, ptr %56, i64 %57
  store ptr %58, ptr %36, align 8, !tbaa !26
  %59 = load i32, ptr %37, align 8, !tbaa !24
  %60 = icmp sgt i32 %59, 0
  br i1 %60, label %.lr.ph, label %._crit_edge

.lr.ph:                                           ; preds = %49
  %61 = trunc nuw nsw i32 %44 to i8
  %62 = add nsw i8 %61, -1
  br label %63

63:                                               ; preds = %.lr.ph, %63
  %64 = load ptr, ptr %36, align 8, !tbaa !26
  %65 = getelementptr inbounds nuw i8, ptr %64, i64 1
  store ptr %65, ptr %36, align 8, !tbaa !26
  store i8 %62, ptr %64, align 1, !tbaa !22
  %66 = load i32, ptr %37, align 8, !tbaa !24
  %67 = add nsw i32 %66, -1
  store i32 %67, ptr %37, align 8, !tbaa !24
  %68 = icmp sgt i32 %66, 1
  br i1 %68, label %63, label %._crit_edge.loopexit, !llvm.loop !27

._crit_edge.loopexit:                             ; preds = %63
  %.pre = load ptr, ptr %36, align 8, !tbaa !26
  br label %._crit_edge

._crit_edge:                                      ; preds = %._crit_edge.loopexit, %49
  %69 = phi ptr [ %.pre, %._crit_edge.loopexit ], [ %58, %49 ]
  %70 = load ptr, ptr %38, align 8, !tbaa !28
  %71 = icmp ult ptr %69, %70
  br i1 %71, label %73, label %72

72:                                               ; preds = %._crit_edge
  tail call void (ptr, i32, ptr, ...) @av_log(ptr noundef null, i32 noundef 0, ptr noundef nonnull @.str, ptr noundef nonnull @.str.1, ptr noundef nonnull @.str.2, i32 noundef 43) #8
  tail call void @abort() #9
  unreachable

73:                                               ; preds = %._crit_edge
  %74 = and i32 %43, 255
  store i32 %74, ptr %35, align 4, !tbaa !25
  %.pre8 = load i32, ptr %25, align 4, !tbaa !15
  %.pre9 = load i32, ptr %14, align 8, !tbaa !8
  br label %opus_rc_enc_carryout.exit.i

opus_rc_enc_carryout.exit.i:                      ; preds = %73, %46
  %75 = phi i32 [ %.pre9, %73 ], [ %41, %46 ]
  %76 = phi i32 [ %.pre8, %73 ], [ %42, %46 ]
  %77 = shl i32 %76, 8
  %78 = and i32 %77, 2147483392
  store i32 %78, ptr %25, align 4, !tbaa !15
  %79 = shl i32 %75, 8
  store i32 %79, ptr %14, align 8, !tbaa !8
  %80 = load i32, ptr %39, align 8, !tbaa !21
  %81 = add i32 %80, 8
  store i32 %81, ptr %39, align 8, !tbaa !21
  %82 = icmp ult i32 %79, 8388609
  br i1 %82, label %40, label %opus_rc_enc_normalize.exit, !llvm.loop !29

opus_rc_enc_normalize.exit:                       ; preds = %opus_rc_enc_carryout.exit.i, %3
  ret void
}